target datalayout = "e-m:e-p270:32:32-p271:32:32-p272:64:64-i64:64-i128:128-f80:128-n8:16:32:64-S128"
target triple = "x86_64-pc-linux-gnu"

%"class.rocksdb::Logger" = type <{ ptr, i8, i8, [6 x i8] }>

@_ZZN7rocksdb6Logger4LogvENS_12InfoLogLevelEPKcP13__va_list_tagE18kInfoLogLevelNames = internal global [5 x ptr] [ptr @.str.47, ptr @.str.48, ptr @.str.49, ptr @.str.50, ptr @.str.51], align 16
@.str.52 = private unnamed_addr constant [8 x i8] c"[%s] %s\00", align 1

; Function Attrs: mustprogress uwtable
define void @_ZN7rocksdb6Logger4LogvENS_12InfoLogLevelEPKcP13__va_list_tag(ptr noundef nonnull align 8 dereferenceable(10) %0, i8 noundef zeroext %1, ptr noundef %2, ptr noundef %3) unnamed_addr #5 align 2 {
  %5 = alloca ptr, align 8
  %6 = alloca i8, align 1
  %7 = alloca ptr, align 8
  %8 = alloca ptr, align 8
  %9 = alloca [500 x i8], align 16
  store ptr %0, ptr %5, align 8, !tbaa !182
  store i8 %1, ptr %6, align 1, !tbaa !191
  store ptr %2, ptr %7, align 8, !tbaa !31
  store ptr %3, ptr %8, align 8, !tbaa !189
  %10 = load ptr, ptr %5, align 8
  %11 = load i8, ptr %6, align 1, !tbaa !191
  %12 = zext i8 %11 to i32
  %13 = getelementptr inbounds nuw %"class.rocksdb::Logger", ptr %10, i32 0, i32 2
  %14 = load i8, ptr %13, align 1, !tbaa !192
  %15 = zext i8 %14 to i32
  %16 = icmp slt i32 %12, %15
  br i1 %16, label %17, label %18

17:                                               ; preds = %4
  br label %64

18:                                               ; preds = %4
  %19 = load i8, ptr %6, align 1, !tbaa !191
  %20 = zext i8 %19 to i32
  %21 = icmp eq i32 %20, 1
  br i1 %21, label %22, label %28

22:                                               ; preds = %18
  %23 = load ptr, ptr %7, align 8, !tbaa !31
  %24 = load ptr, ptr %8, align 8, !tbaa !189
  %25 = load ptr, ptr %10, align 8, !tbaa !52
  %26 = getelementptr inbounds ptr, ptr %25, i64 4
  %27 = load ptr, ptr %26, align 8
  call void %27(ptr noundef nonnull align 8 dereferenceable(10) %10, ptr noundef %23, ptr noundef %24)
  br label %52

28:                                               ; preds = %18
  %29 = load i8, ptr %6, align 1, !tbaa !191
  %30 = zext i8 %29 to i32
  %31 = icmp eq i32 %30, 5
  br i1 %31, label %32, label %38

32:                                               ; preds = %28
  %33 = load ptr, ptr %7, align 8, !tbaa !31
  %34 = load ptr, ptr %8, align 8, !tbaa !189
  %35 = load ptr, ptr %10, align 8, !tbaa !52
  %36 = getelementptr inbounds ptr, ptr %35, i64 3
  %37 = load ptr, ptr %36, align 8
  call void %37(ptr noundef nonnull align 8 dereferenceable(10) %10, ptr noundef %33, ptr noundef %34)
  br label %51

38:                                               ; preds = %28
  call void @llvm.lifetime.start.p0(i64 500, ptr %9) #4
  %39 = getelementptr inbounds [500 x i8], ptr %9, i64 0, i64 0
  %40 = load i8, ptr %6, align 1, !tbaa !191
  %41 = zext i8 %40 to i64
  %42 = getelementptr inbounds nuw [5 x ptr], ptr @_ZZN7rocksdb6Logger4LogvENS_12InfoLogLevelEPKcP13__va_list_tagE18kInfoLogLevelNames, i64 0, i64 %41
  %43 = load ptr, ptr %42, align 8, !tbaa !31
  %44 = load ptr, ptr %7, align 8, !tbaa !31
  %45 = call i32 (ptr, i64, ptr, ...) @snprintf(ptr noundef %39, i64 noundef 499, ptr noundef @.str.52, ptr noundef %43, ptr noundef %44) #4
  %46 = getelementptr inbounds [500 x i8], ptr %9, i64 0, i64 0
  %47 = load ptr, ptr %8, align 8, !tbaa !189
  %48 = load ptr, ptr %10, align 8, !tbaa !52
  %49 = getelementptr inbounds ptr, ptr %48, i64 4
  %50 = load ptr, ptr %49, align 8
  call void %50(ptr noundef nonnull align 8 dereferenceable(10) %10, ptr noundef %46, ptr noundef %47)
  call void @llvm.lifetime.end.p0(i64 500, ptr %9) #4
  br label %51

51:                                               ; preds = %38, %32
  br label %52

52:                                               ; preds = %51, %22
  %53 = load i8, ptr %6, align 1, !tbaa !191
  %54 = zext i8 %53 to i32
  %55 = icmp sge i32 %54, 2
  br i1 %55, label %56, label %64

56:                                               ; preds = %52
  %57 = load i8, ptr %6, align 1, !tbaa !191
  %58 = zext i8 %57 to i32
  %59 = icmp ne i32 %58, 5
  br i1 %59, label %60, label %64

60:                                               ; preds = %56
  %61 = load ptr, ptr %10, align 8, !tbaa !52
  %62 = getelementptr inbounds ptr, ptr %61, i64 7
  %63 = load ptr, ptr %62, align 8
  call void %63(ptr noundef nonnull align 8 dereferenceable(10) %10)
  br label %64

64:                                               ; preds = %17, %60, %56, %52
  ret void
}