; Function Attrs: mustprogress uwtable
define void @_ZN7rocksdb6Logger4LogvENS_12InfoLogLevelEPKcP13__va_list_tag(ptr noundef nonnull align 8 dereferenceable(10) %0, i8 noundef zeroext %1, ptr noundef %2, ptr noundef %3) unnamed_addr #4 align 2 {
  %5 = alloca [500 x i8], align 16
  %6 = getelementptr inbounds nuw i8, ptr %0, i64 9
  %7 = load i8, ptr %6, align 1, !tbaa !228
  %8 = icmp ult i8 %1, %7
  br i1 %8, label %.thread, label %9

9:                                                ; preds = %4
  switch i8 %1, label %18 [
    i8 1, label %10
    i8 5, label %14
  ]

10:                                               ; preds = %9
  %11 = load ptr, ptr %0, align 8, !tbaa !18
  %12 = getelementptr inbounds nuw i8, ptr %11, i64 32
  %13 = load ptr, ptr %12, align 8
  tail call void %13(ptr noundef nonnull align 8 dereferenceable(10) %0, ptr noundef %2, ptr noundef %3)
  br label %.thread

14:                                               ; preds = %9
  %15 = load ptr, ptr %0, align 8, !tbaa !18
  %16 = getelementptr inbounds nuw i8, ptr %15, i64 24
  %17 = load ptr, ptr %16, align 8
  tail call void %17(ptr noundef nonnull align 8 dereferenceable(10) %0, ptr noundef %2, ptr noundef %3)
  br label %.thread

18:                                               ; preds = %9
  call void @llvm.lifetime.start.p0(i64 500, ptr nonnull %5) #37
  %19 = zext i8 %1 to i64
  %20 = getelementptr inbounds nuw [5 x ptr], ptr @_ZZN7rocksdb6Logger4LogvENS_12InfoLogLevelEPKcP13__va_list_tagE18kInfoLogLevelNames, i64 0, i64 %19
  %21 = load ptr, ptr %20, align 8, !tbaa !121
  %22 = call i32 (ptr, i64, ptr, ...) @snprintf(ptr noundef nonnull dereferenceable(1) %5, i64 noundef 499, ptr noundef nonnull @.str.52, ptr noundef %21, ptr noundef %2) #37
  %23 = load ptr, ptr %0, align 8, !tbaa !18
  %24 = getelementptr inbounds nuw i8, ptr %23, i64 32
  %25 = load ptr, ptr %24, align 8
  call void %25(ptr noundef nonnull align 8 dereferenceable(10) %0, ptr noundef nonnull %5, ptr noundef %3)
  call void @llvm.lifetime.end.p0(i64 500, ptr nonnull %5) #37
  %cond = icmp eq i8 %1, 0
  br i1 %cond, label %.thread, label %26

26:                                               ; preds = %18
  %27 = load ptr, ptr %0, align 8, !tbaa !18
  %28 = getelementptr inbounds nuw i8, ptr %27, i64 56
  %29 = load ptr, ptr %28, align 8
  call void %29(ptr noundef nonnull align 8 dereferenceable(10) %0)
  br label %.thread

.thread:                                          ; preds = %18, %10, %14, %4, %26
  ret void
}